target datalayout = "e-m:e-p270:32:32-p271:32:32-p272:64:64-i64:64-i128:128-f80:128-n8:16:32:64-S128"
target triple = "x86_64-pc-linux-gnu"

%"class.std::__cxx11::basic_string" = type { %"struct.std::__cxx11::basic_string<char>::_Alloc_hider", i64, %union.anon }
%"struct.std::__cxx11::basic_string<char>::_Alloc_hider" = type { ptr }
%union.anon = type { i64, [8 x i8] }
%"class.cv::FileStorage::Impl" = type <{ %"class.cv::FileStorage_API", ptr, %"class.std::__cxx11::basic_string", i32, i8, [3 x i8], ptr, ptr, i8, i8, i8, i8, i32, i32, i8, i8, [2 x i8], ptr, i32, [4 x i8], ptr, i32, i32, i32, [4 x i8], %"class.std::deque", %"class.std::vector", i64, %"class.std::deque.3", %"struct.cv::Ptr", %"struct.cv::Ptr.6", %"class.cv::FileStorage::Impl::Base64Decoder", ptr, %"class.std::vector.15", %"class.std::vector.20", %"class.std::vector.25", %"class.std::vector.30", i64, %"class.std::unordered_map", %"class.std::vector", %"class.std::vector", ptr, i64, i64, i32, [4 x i8] }>
%"class.cv::FileStorage_API" = type { ptr }
%"class.std::deque" = type { %"class.std::_Deque_base" }
%"class.std::_Deque_base" = type { %"struct.std::_Deque_base<cv::FStructData, std::allocator<cv::FStructData>>::_Deque_impl" }
%"struct.std::_Deque_base<cv::FStructData, std::allocator<cv::FStructData>>::_Deque_impl" = type { %"struct.std::_Deque_base<cv::FStructData, std::allocator<cv::FStructData>>::_Deque_impl_data" }
%"struct.std::_Deque_base<cv::FStructData, std::allocator<cv::FStructData>>::_Deque_impl_data" = type { ptr, i64, %"struct.std::_Deque_iterator", %"struct.std::_Deque_iterator" }
%"struct.std::_Deque_iterator" = type { ptr, ptr, ptr, ptr }
%"class.std::deque.3" = type { %"class.std::_Deque_base.4" }
%"class.std::_Deque_base.4" = type { %"struct.std::_Deque_base<char, std::allocator<char>>::_Deque_impl" }
%"struct.std::_Deque_base<char, std::allocator<char>>::_Deque_impl" = type { %"struct.std::_Deque_base<char, std::allocator<char>>::_Deque_impl_data" }
%"struct.std::_Deque_base<char, std::allocator<char>>::_Deque_impl_data" = type { ptr, i64, %"struct.std::_Deque_iterator.5", %"struct.std::_Deque_iterator.5" }
%"struct.std::_Deque_iterator.5" = type { ptr, ptr, ptr, ptr }
%"struct.cv::Ptr" = type { %"class.std::shared_ptr" }
%"class.std::shared_ptr" = type { %"class.std::__shared_ptr" }
%"class.std::__shared_ptr" = type { ptr, %"class.std::__shared_count" }
%"class.std::__shared_count" = type { ptr }
%"struct.cv::Ptr.6" = type { %"class.std::shared_ptr.7" }
%"class.std::shared_ptr.7" = type { %"class.std::__shared_ptr.8" }
%"class.std::__shared_ptr.8" = type { ptr, %"class.std::__shared_count" }
%"class.cv::FileStorage::Impl::Base64Decoder" = type <{ %"struct.cv::Ptr.6", ptr, i32, [4 x i8], %"class.std::vector", %"class.std::vector.10", i64, i64, i8, [7 x i8] }>
%"class.std::vector.10" = type { %"struct.std::_Vector_base.11" }
%"struct.std::_Vector_base.11" = type { %"struct.std::_Vector_base<unsigned char, std::allocator<unsigned char>>::_Vector_impl" }
%"struct.std::_Vector_base<unsigned char, std::allocator<unsigned char>>::_Vector_impl" = type { %"struct.std::_Vector_base<unsigned char, std::allocator<unsigned char>>::_Vector_impl_data" }
%"struct.std::_Vector_base<unsigned char, std::allocator<unsigned char>>::_Vector_impl_data" = type { ptr, ptr, ptr }
%"class.std::vector.15" = type { %"struct.std::_Vector_base.16" }
%"struct.std::_Vector_base.16" = type { %"struct.std::_Vector_base<cv::FileNode, std::allocator<cv::FileNode>>::_Vector_impl" }
%"struct.std::_Vector_base<cv::FileNode, std::allocator<cv::FileNode>>::_Vector_impl" = type { %"struct.std::_Vector_base<cv::FileNode, std::allocator<cv::FileNode>>::_Vector_impl_data" }
%"struct.std::_Vector_base<cv::FileNode, std::allocator<cv::FileNode>>::_Vector_impl_data" = type { ptr, ptr, ptr }
%"class.std::vector.20" = type { %"struct.std::_Vector_base.21" }
%"struct.std::_Vector_base.21" = type { %"struct.std::_Vector_base<cv::Ptr<std::vector<unsigned char>>, std::allocator<cv::Ptr<std::vector<unsigned char>>>>::_Vector_impl" }
%"struct.std::_Vector_base<cv::Ptr<std::vector<unsigned char>>, std::allocator<cv::Ptr<std::vector<unsigned char>>>>::_Vector_impl" = type { %"struct.std::_Vector_base<cv::Ptr<std::vector<unsigned char>>, std::allocator<cv::Ptr<std::vector<unsigned char>>>>::_Vector_impl_data" }
%"struct.std::_Vector_base<cv::Ptr<std::vector<unsigned char>>, std::allocator<cv::Ptr<std::vector<unsigned char>>>>::_Vector_impl_data" = type { ptr, ptr, ptr }
%"class.std::vector.25" = type { %"struct.std::_Vector_base.26" }
%"struct.std::_Vector_base.26" = type { %"struct.std::_Vector_base<unsigned char *, std::allocator<unsigned char *>>::_Vector_impl" }
%"struct.std::_Vector_base<unsigned char *, std::allocator<unsigned char *>>::_Vector_impl" = type { %"struct.std::_Vector_base<unsigned char *, std::allocator<unsigned char *>>::_Vector_impl_data" }
%"struct.std::_Vector_base<unsigned char *, std::allocator<unsigned char *>>::_Vector_impl_data" = type { ptr, ptr, ptr }
%"class.std::vector.30" = type { %"struct.std::_Vector_base.31" }
%"struct.std::_Vector_base.31" = type { %"struct.std::_Vector_base<unsigned long, std::allocator<unsigned long>>::_Vector_impl" }
%"struct.std::_Vector_base<unsigned long, std::allocator<unsigned long>>::_Vector_impl" = type { %"struct.std::_Vector_base<unsigned long, std::allocator<unsigned long>>::_Vector_impl_data" }
%"struct.std::_Vector_base<unsigned long, std::allocator<unsigned long>>::_Vector_impl_data" = type { ptr, ptr, ptr }
%"class.std::unordered_map" = type { %"class.std::_Hashtable" }
%"class.std::_Hashtable" = type { ptr, i64, %"struct.std::__detail::_Hash_node_base", i64, %"struct.std::__detail::_Prime_rehash_policy", ptr }
%"struct.std::__detail::_Hash_node_base" = type { ptr }
%"struct.std::__detail::_Prime_rehash_policy" = type { float, i64 }
%"class.std::vector" = type { %"struct.std::_Vector_base" }
%"struct.std::_Vector_base" = type { %"struct.std::_Vector_base<char, std::allocator<char>>::_Vector_impl" }
%"struct.std::_Vector_base<char, std::allocator<char>>::_Vector_impl" = type { %"struct.std::_Vector_base<char, std::allocator<char>>::_Vector_impl_data" }
%"struct.std::_Vector_base<char, std::allocator<char>>::_Vector_impl_data" = type { ptr, ptr, ptr }
%"class.cv::FileNode" = type { ptr, i64, i64 }

; Function Attrs: mustprogress uwtable
define noundef ptr @_ZNK2cv8FileNode3ptrEv(ptr noundef nonnull align 8 dereferenceable(24) %0) #4 align 2 {
  %2 = alloca ptr, align 8
  store ptr %0, ptr %2, align 8, !tbaa !212
  %3 = load ptr, ptr %2, align 8
  %4 = getelementptr inbounds nuw %"class.cv::FileNode", ptr %3, i32 0, i32 0
  %5 = load ptr, ptr %4, align 8, !tbaa !243
  %6 = icmp ne ptr %5, null
  br i1 %6, label %8, label %7

7:                                                ; preds = %1
  br label %16

8:                                                ; preds = %1
  %9 = getelementptr inbounds nuw %"class.cv::FileNode", ptr %3, i32 0, i32 0
  %10 = load ptr, ptr %9, align 8, !tbaa !243
  %11 = getelementptr inbounds nuw %"class.cv::FileNode", ptr %3, i32 0, i32 1
  %12 = load i64, ptr %11, align 8, !tbaa !213
  %13 = getelementptr inbounds nuw %"class.cv::FileNode", ptr %3, i32 0, i32 2
  %14 = load i64, ptr %13, align 8, !tbaa !215
  %15 = call noundef ptr @_ZNK2cv11FileStorage4Impl10getNodePtrEmm(ptr noundef nonnull align 8 dereferenceable(700) %10, i64 noundef %12, i64 noundef %14)
  br label %16

16:                                               ; preds = %8, %7
  %17 = phi ptr [ null, %7 ], [ %15, %8 ]
  ret ptr %17
}

; Function Attrs: mustprogress uwtable
define noundef i32 @_ZNK2cv8FileNode4typeEv(ptr noundef nonnull align 8 dereferenceable(24) %0) #4 align 2 {
  %2 = alloca i32, align 4
  %3 = alloca ptr, align 8
  %4 = alloca ptr, align 8
  %5 = alloca i32, align 4
  store ptr %0, ptr %3, align 8, !tbaa !212
  %6 = load ptr, ptr %3, align 8
  call void @llvm.lifetime.start.p0(i64 8, ptr %4) #3
  %7 = call noundef ptr @_ZNK2cv8FileNode3ptrEv(ptr noundef nonnull align 8 dereferenceable(24) %6)
  store ptr %7, ptr %4, align 8, !tbaa !3
  %8 = load ptr, ptr %4, align 8, !tbaa !3
  %9 = icmp ne ptr %8, null
  br i1 %9, label %11, label %10

10:                                               ; preds = %1
  store i32 0, ptr %2, align 4
  store i32 1, ptr %5, align 4
  br label %16

11:                                               ; preds = %1
  %12 = load ptr, ptr %4, align 8, !tbaa !3
  %13 = load i8, ptr %12, align 1, !tbaa !10
  %14 = zext i8 %13 to i32
  %15 = and i32 %14, 7
  store i32 %15, ptr %2, align 4
  store i32 1, ptr %5, align 4
  br label %16

16:                                               ; preds = %11, %10
  call void @llvm.lifetime.end.p0(i64 8, ptr %4) #3
  %17 = load i32, ptr %2, align 4
  ret i32 %17
}

; Function Attrs: inlinehint mustprogress nounwind uwtable
define internal void @_ZN2cvL8writeIntIiEEvPhT_(ptr noundef %0, i32 noundef %1) #7 {
  %3 = alloca ptr, align 8
  %4 = alloca i32, align 4
  store ptr %0, ptr %3, align 8, !tbaa !3
  store i32 %1, ptr %4, align 4, !tbaa !11
  %5 = load ptr, ptr %3, align 8, !tbaa !3
  call void @llvm.memcpy.p0.p0.i64(ptr align 1 %5, ptr align 4 %4, i64 4, i1 false)
  ret void
}

; Function Attrs: mustprogress nounwind uwtable
define linkonce_odr hidden noundef nonnull align 8 dereferenceable(8) ptr @_ZNSt6vectorImSaImEEixEm(ptr noundef nonnull align 8 dereferenceable(24) %0, i64 noundef %1) #8 comdat align 2 {
  %3 = alloca ptr, align 8
  %4 = alloca i64, align 8
  store ptr %0, ptr %3, align 8, !tbaa !144
  store i64 %1, ptr %4, align 8, !tbaa !8
  %5 = load ptr, ptr %3, align 8
  %6 = getelementptr inbounds nuw %"struct.std::_Vector_base.31", ptr %5, i32 0, i32 0
  %7 = getelementptr inbounds nuw %"struct.std::_Vector_base<unsigned long, std::allocator<unsigned long>>::_Vector_impl_data", ptr %6, i32 0, i32 0
  %8 = load ptr, ptr %7, align 8, !tbaa !146
  %9 = load i64, ptr %4, align 8, !tbaa !8
  %10 = getelementptr inbounds nuw i64, ptr %8, i64 %9
  ret ptr %10
}

; Function Attrs: mustprogress nounwind uwtable
define linkonce_odr hidden noundef i64 @_ZNKSt6vectorIPhSaIS0_EE4sizeEv(ptr noundef nonnull align 8 dereferenceable(24) %0) #8 comdat align 2 {
  %2 = alloca ptr, align 8
  store ptr %0, ptr %2, align 8, !tbaa !141
  %3 = load ptr, ptr %2, align 8
  %4 = getelementptr inbounds nuw %"struct.std::_Vector_base.26", ptr %3, i32 0, i32 0
  %5 = getelementptr inbounds nuw %"struct.std::_Vector_base<unsigned char *, std::allocator<unsigned char *>>::_Vector_impl_data", ptr %4, i32 0, i32 1
  %6 = load ptr, ptr %5, align 8, !tbaa !165
  %7 = getelementptr inbounds nuw %"struct.std::_Vector_base.26", ptr %3, i32 0, i32 0
  %8 = getelementptr inbounds nuw %"struct.std::_Vector_base<unsigned char *, std::allocator<unsigned char *>>::_Vector_impl_data", ptr %7, i32 0, i32 0
  %9 = load ptr, ptr %8, align 8, !tbaa !143
  %10 = ptrtoint ptr %6 to i64
  %11 = ptrtoint ptr %9 to i64
  %12 = sub i64 %10, %11
  %13 = sdiv exact i64 %12, 8
  ret i64 %13
}

; Function Attrs: inlinehint mustprogress nounwind uwtable
define internal noundef i32 @_ZN2cvL7readIntEPKh(ptr noundef %0) #7 {
  %2 = alloca ptr, align 8
  %3 = alloca i32, align 4
  store ptr %0, ptr %2, align 8, !tbaa !3
  call void @llvm.lifetime.start.p0(i64 4, ptr %3) #3
  %4 = load ptr, ptr %2, align 8, !tbaa !3
  call void @llvm.memcpy.p0.p0.i64(ptr align 4 %3, ptr align 1 %4, i64 4, i1 false)
  %5 = load i32, ptr %3, align 4, !tbaa !11
  call void @llvm.lifetime.end.p0(i64 4, ptr %3) #3
  ret i32 %5
}

; Function Attrs: mustprogress uwtable
define noundef ptr @_ZN2cv8FileNode3ptrEv(ptr noundef nonnull align 8 dereferenceable(24) %0) #4 align 2 {
  %2 = alloca ptr, align 8
  store ptr %0, ptr %2, align 8, !tbaa !212
  %3 = load ptr, ptr %2, align 8
  %4 = getelementptr inbounds nuw %"class.cv::FileNode", ptr %3, i32 0, i32 0
  %5 = load ptr, ptr %4, align 8, !tbaa !243
  %6 = icmp ne ptr %5, null
  br i1 %6, label %8, label %7

7:                                                ; preds = %1
  br label %16

8:                                                ; preds = %1
  %9 = getelementptr inbounds nuw %"class.cv::FileNode", ptr %3, i32 0, i32 0
  %10 = load ptr, ptr %9, align 8, !tbaa !243
  %11 = getelementptr inbounds nuw %"class.cv::FileNode", ptr %3, i32 0, i32 1
  %12 = load i64, ptr %11, align 8, !tbaa !213
  %13 = getelementptr inbounds nuw %"class.cv::FileNode", ptr %3, i32 0, i32 2
  %14 = load i64, ptr %13, align 8, !tbaa !215
  %15 = call noundef ptr @_ZNK2cv11FileStorage4Impl10getNodePtrEmm(ptr noundef nonnull align 8 dereferenceable(700) %10, i64 noundef %12, i64 noundef %14)
  br label %16

16:                                               ; preds = %8, %7
  %17 = phi ptr [ null, %7 ], [ %15, %8 ]
  ret ptr %17
}

; Function Attrs: mustprogress uwtable
define noundef zeroext i1 @_ZNK2cv8FileNode5isMapEv(ptr noundef nonnull align 8 dereferenceable(24) %0) #4 align 2 {
  %2 = alloca ptr, align 8
  store ptr %0, ptr %2, align 8, !tbaa !212
  %3 = load ptr, ptr %2, align 8
  %4 = call noundef i32 @_ZNK2cv8FileNode4typeEv(ptr noundef nonnull align 8 dereferenceable(24) %3)
  %5 = icmp eq i32 %4, 5
  ret i1 %5
}

; Function Attrs: mustprogress uwtable
define noundef zeroext i1 @_ZNK2cv8FileNode5isSeqEv(ptr noundef nonnull align 8 dereferenceable(24) %0) #4 align 2 {
  %2 = alloca ptr, align 8
  store ptr %0, ptr %2, align 8, !tbaa !212
  %3 = load ptr, ptr %2, align 8
  %4 = call noundef i32 @_ZNK2cv8FileNode4typeEv(ptr noundef nonnull align 8 dereferenceable(24) %3)
  %5 = icmp eq i32 %4, 4
  ret i1 %5
}

; Function Attrs: mustprogress uwtable
define void @_ZN2cv11FileStorage4Impl18finalizeCollectionERNS_8FileNodeE(ptr noundef nonnull align 8 dereferenceable(700) %0, ptr noundef nonnull align 8 dereferenceable(24) %1) unnamed_addr #4 align 2 {
  %3 = alloca ptr, align 8
  %4 = alloca ptr, align 8
  %5 = alloca ptr, align 8
  %6 = alloca ptr, align 8
  %7 = alloca i64, align 8
  %8 = alloca i64, align 8
  %9 = alloca i64, align 8
  %10 = alloca i32, align 4
  %11 = alloca i64, align 8
  store ptr %0, ptr %3, align 8, !tbaa !38
  store ptr %1, ptr %4, align 8, !tbaa !212
  %12 = load ptr, ptr %3, align 8
  %13 = load ptr, ptr %4, align 8, !tbaa !212
  %14 = call noundef zeroext i1 @_ZNK2cv8FileNode5isSeqEv(ptr noundef nonnull align 8 dereferenceable(24) %13)
  br i1 %14, label %19, label %15

15:                                               ; preds = %2
  %16 = load ptr, ptr %4, align 8, !tbaa !212
  %17 = call noundef zeroext i1 @_ZNK2cv8FileNode5isMapEv(ptr noundef nonnull align 8 dereferenceable(24) %16)
  br i1 %17, label %19, label %18

18:                                               ; preds = %15
  br label %82

19:                                               ; preds = %15, %2
  call void @llvm.lifetime.start.p0(i64 8, ptr %5) #3
  %20 = load ptr, ptr %4, align 8, !tbaa !212
  %21 = call noundef ptr @_ZN2cv8FileNode3ptrEv(ptr noundef nonnull align 8 dereferenceable(24) %20)
  store ptr %21, ptr %5, align 8, !tbaa !3
  call void @llvm.lifetime.start.p0(i64 8, ptr %6) #3
  %22 = load ptr, ptr %5, align 8, !tbaa !3
  %23 = getelementptr inbounds i8, ptr %22, i64 1
  store ptr %23, ptr %6, align 8, !tbaa !3
  %24 = load ptr, ptr %5, align 8, !tbaa !3
  %25 = load i8, ptr %24, align 1, !tbaa !10
  %26 = zext i8 %25 to i32
  %27 = and i32 %26, 32
  %28 = icmp ne i32 %27, 0
  br i1 %28, label %29, label %32

29:                                               ; preds = %19
  %30 = load ptr, ptr %6, align 8, !tbaa !3
  %31 = getelementptr inbounds i8, ptr %30, i64 4
  store ptr %31, ptr %6, align 8, !tbaa !3
  br label %32

32:                                               ; preds = %29, %19
  call void @llvm.lifetime.start.p0(i64 8, ptr %7) #3
  %33 = load ptr, ptr %4, align 8, !tbaa !212
  %34 = getelementptr inbounds nuw %"class.cv::FileNode", ptr %33, i32 0, i32 1
  %35 = load i64, ptr %34, align 8, !tbaa !213
  store i64 %35, ptr %7, align 8, !tbaa !8
  call void @llvm.lifetime.start.p0(i64 8, ptr %8) #3
  %36 = load ptr, ptr %4, align 8, !tbaa !212
  %37 = getelementptr inbounds nuw %"class.cv::FileNode", ptr %36, i32 0, i32 2
  %38 = load i64, ptr %37, align 8, !tbaa !215
  %39 = load ptr, ptr %6, align 8, !tbaa !3
  %40 = getelementptr inbounds i8, ptr %39, i64 8
  %41 = load ptr, ptr %5, align 8, !tbaa !3
  %42 = ptrtoint ptr %40 to i64
  %43 = ptrtoint ptr %41 to i64
  %44 = sub i64 %42, %43
  %45 = add i64 %38, %44
  store i64 %45, ptr %8, align 8, !tbaa !8
  call void @llvm.lifetime.start.p0(i64 8, ptr %9) #3
  store i64 4, ptr %9, align 8, !tbaa !8
  call void @llvm.lifetime.start.p0(i64 4, ptr %10) #3
  %46 = load ptr, ptr %6, align 8, !tbaa !3
  %47 = getelementptr inbounds i8, ptr %46, i64 4
  %48 = call noundef i32 @_ZN2cvL7readIntEPKh(ptr noundef %47)
  store i32 %48, ptr %10, align 4, !tbaa !11
  %49 = load i32, ptr %10, align 4, !tbaa !11
  %50 = icmp ugt i32 %49, 0
  br i1 %50, label %51, label %72

51:                                               ; preds = %32
  call void @llvm.lifetime.start.p0(i64 8, ptr %11) #3
  %52 = getelementptr inbounds nuw %"class.cv::FileStorage::Impl", ptr %12, i32 0, i32 35
  %53 = call noundef i64 @_ZNKSt6vectorIPhSaIS0_EE4sizeEv(ptr noundef nonnull align 8 dereferenceable(24) %52) #3
  %54 = sub i64 %53, 1
  store i64 %54, ptr %11, align 8, !tbaa !8
  br label %55

55:                                               ; preds = %68, %51
  %56 = load i64, ptr %7, align 8, !tbaa !8
  %57 = load i64, ptr %11, align 8, !tbaa !8
  %58 = icmp ult i64 %56, %57
  br i1 %58, label %59, label %71

59:                                               ; preds = %55
  %60 = getelementptr inbounds nuw %"class.cv::FileStorage::Impl", ptr %12, i32 0, i32 36
  %61 = load i64, ptr %7, align 8, !tbaa !8
  %62 = call noundef nonnull align 8 dereferenceable(8) ptr @_ZNSt6vectorImSaImEEixEm(ptr noundef nonnull align 8 dereferenceable(24) %60, i64 noundef %61) #3
  %63 = load i64, ptr %62, align 8, !tbaa !8
  %64 = load i64, ptr %8, align 8, !tbaa !8
  %65 = sub i64 %63, %64
  %66 = load i64, ptr %9, align 8, !tbaa !8
  %67 = add i64 %66, %65
  store i64 %67, ptr %9, align 8, !tbaa !8
  store i64 0, ptr %8, align 8, !tbaa !8
  br label %68

68:                                               ; preds = %59
  %69 = load i64, ptr %7, align 8, !tbaa !8
  %70 = add i64 %69, 1
  store i64 %70, ptr %7, align 8, !tbaa !8
  br label %55, !llvm.loop !262

71:                                               ; preds = %55
  call void @llvm.lifetime.end.p0(i64 8, ptr %11) #3
  br label %72

72:                                               ; preds = %71, %32
  %73 = getelementptr inbounds nuw %"class.cv::FileStorage::Impl", ptr %12, i32 0, i32 37
  %74 = load i64, ptr %73, align 8, !tbaa !130
  %75 = load i64, ptr %8, align 8, !tbaa !8
  %76 = sub i64 %74, %75
  %77 = load i64, ptr %9, align 8, !tbaa !8
  %78 = add i64 %77, %76
  store i64 %78, ptr %9, align 8, !tbaa !8
  %79 = load ptr, ptr %6, align 8, !tbaa !3
  %80 = load i64, ptr %9, align 8, !tbaa !8
  %81 = trunc i64 %80 to i32
  call void @_ZN2cvL8writeIntIiEEvPhT_(ptr noundef %79, i32 noundef %81)
  call void @llvm.lifetime.end.p0(i64 4, ptr %10) #3
  call void @llvm.lifetime.end.p0(i64 8, ptr %9) #3
  call void @llvm.lifetime.end.p0(i64 8, ptr %8) #3
  call void @llvm.lifetime.end.p0(i64 8, ptr %7) #3
  call void @llvm.lifetime.end.p0(i64 8, ptr %6) #3
  call void @llvm.lifetime.end.p0(i64 8, ptr %5) #3
  br label %82

82:                                               ; preds = %72, %18
  ret void
}