; Function Attrs: mustprogress uwtable
define void @_ZN2cv11FileStorage4Impl18finalizeCollectionERNS_8FileNodeE(ptr noundef nonnull readonly align 8 captures(none) dereferenceable(700) %0, ptr noundef nonnull readonly align 8 captures(none) dereferenceable(24) %1) unnamed_addr #13 align 2 {
  %3 = load ptr, ptr %1, align 8, !tbaa !250
  %.not.i.i.i = icmp eq ptr %3, null
  br i1 %.not.i.i.i, label %_ZNK2cv8FileNode5isMapEv.exit.thread, label %_ZNK2cv8FileNode3ptrEv.exit.i.i

_ZNK2cv8FileNode3ptrEv.exit.i.i:                  ; preds = %2
  %4 = getelementptr inbounds nuw i8, ptr %1, i64 8
  %5 = load i64, ptr %4, align 8, !tbaa !253
  %6 = getelementptr inbounds nuw i8, ptr %1, i64 16
  %7 = load i64, ptr %6, align 8, !tbaa !254
  %8 = tail call noundef ptr @_ZNK2cv11FileStorage4Impl10getNodePtrEmm(ptr noundef nonnull align 8 dereferenceable(700) %3, i64 noundef %5, i64 noundef %7)
  %.not.i.i = icmp eq ptr %8, null
  br i1 %.not.i.i, label %_ZNK2cv8FileNode5isSeqEv.exit.thread, label %_ZNK2cv8FileNode5isSeqEv.exit

_ZNK2cv8FileNode5isSeqEv.exit:                    ; preds = %_ZNK2cv8FileNode3ptrEv.exit.i.i
  %9 = load i8, ptr %8, align 1, !tbaa !5
  %10 = and i8 %9, 7
  %11 = icmp eq i8 %10, 4
  br i1 %11, label %_ZN2cv8FileNode3ptrEv.exit, label %_ZNK2cv8FileNode5isSeqEv.exit.thread

_ZNK2cv8FileNode5isSeqEv.exit.thread:             ; preds = %_ZNK2cv8FileNode3ptrEv.exit.i.i, %_ZNK2cv8FileNode5isSeqEv.exit
  %.pr = load ptr, ptr %1, align 8, !tbaa !250
  %.not.i.i.i27 = icmp eq ptr %.pr, null
  br i1 %.not.i.i.i27, label %_ZNK2cv8FileNode5isMapEv.exit.thread, label %_ZNK2cv8FileNode3ptrEv.exit.i.i28

_ZNK2cv8FileNode3ptrEv.exit.i.i28:                ; preds = %_ZNK2cv8FileNode5isSeqEv.exit.thread
  %12 = load i64, ptr %4, align 8, !tbaa !253
  %13 = load i64, ptr %6, align 8, !tbaa !254
  %14 = tail call noundef ptr @_ZNK2cv11FileStorage4Impl10getNodePtrEmm(ptr noundef nonnull align 8 dereferenceable(700) %.pr, i64 noundef %12, i64 noundef %13)
  %.not.i.i29 = icmp eq ptr %14, null
  br i1 %.not.i.i29, label %_ZNK2cv8FileNode5isMapEv.exit.thread, label %_ZNK2cv8FileNode5isMapEv.exit

_ZNK2cv8FileNode5isMapEv.exit:                    ; preds = %_ZNK2cv8FileNode3ptrEv.exit.i.i28
  %15 = load i8, ptr %14, align 1, !tbaa !5
  %16 = and i8 %15, 7
  %17 = icmp eq i8 %16, 5
  br i1 %17, label %_ZN2cv8FileNode3ptrEv.exit, label %_ZNK2cv8FileNode5isMapEv.exit.thread

_ZN2cv8FileNode3ptrEv.exit:                       ; preds = %_ZNK2cv8FileNode5isMapEv.exit, %_ZNK2cv8FileNode5isSeqEv.exit
  %18 = load ptr, ptr %1, align 8, !tbaa !250, !nonnull !155, !noundef !155
  %19 = load i64, ptr %4, align 8, !tbaa !253
  %20 = load i64, ptr %6, align 8, !tbaa !254
  %21 = tail call noundef ptr @_ZNK2cv11FileStorage4Impl10getNodePtrEmm(ptr noundef nonnull align 8 dereferenceable(700) %18, i64 noundef %19, i64 noundef %20)
  %22 = load i8, ptr %21, align 1, !tbaa !5
  %23 = and i8 %22, 32
  %.not = icmp eq i8 %23, 0
  %spec.select.v = select i1 %.not, i64 1, i64 5
  %spec.select = getelementptr inbounds nuw i8, ptr %21, i64 %spec.select.v
  %24 = load i64, ptr %6, align 8, !tbaa !254
  %25 = getelementptr inbounds nuw i8, ptr %spec.select, i64 8
  %26 = ptrtoint ptr %25 to i64
  %27 = ptrtoint ptr %21 to i64
  %28 = sub i64 %26, %27
  %29 = add i64 %28, %24
  %30 = getelementptr inbounds nuw i8, ptr %spec.select, i64 4
  %.val = load i32, ptr %30, align 1
  %.not26 = icmp eq i32 %.val, 0
  br i1 %.not26, label %.loopexit, label %31

31:                                               ; preds = %_ZN2cv8FileNode3ptrEv.exit
  %32 = load i64, ptr %4, align 8, !tbaa !253
  %33 = getelementptr inbounds nuw i8, ptr %0, i64 512
  %34 = getelementptr inbounds nuw i8, ptr %0, i64 520
  %35 = load ptr, ptr %34, align 8, !tbaa !119
  %36 = load ptr, ptr %33, align 8, !tbaa !118
  %37 = ptrtoint ptr %35 to i64
  %38 = ptrtoint ptr %36 to i64
  %39 = sub i64 %37, %38
  %40 = ashr exact i64 %39, 3
  %41 = add nsw i64 %40, -1
  %42 = icmp ult i64 %32, %41
  br i1 %42, label %.lr.ph, label %.loopexit

.lr.ph:                                           ; preds = %31
  %43 = getelementptr inbounds nuw i8, ptr %0, i64 536
  %44 = load ptr, ptr %43, align 8, !tbaa !120
  br label %45

45:                                               ; preds = %.lr.ph, %45
  %.02236 = phi i64 [ %32, %.lr.ph ], [ %50, %45 ]
  %.135 = phi i64 [ 4, %.lr.ph ], [ %49, %45 ]
  %.12534 = phi i64 [ %29, %.lr.ph ], [ 0, %45 ]
  %46 = getelementptr inbounds nuw i64, ptr %44, i64 %.02236
  %47 = load i64, ptr %46, align 8, !tbaa !169
  %48 = sub i64 %.135, %.12534
  %49 = add i64 %48, %47
  %50 = add nuw i64 %.02236, 1
  %exitcond.not = icmp eq i64 %50, %41
  br i1 %exitcond.not, label %.loopexit, label %45, !llvm.loop !327

.loopexit:                                        ; preds = %45, %31, %_ZN2cv8FileNode3ptrEv.exit
  %.024 = phi i64 [ %29, %_ZN2cv8FileNode3ptrEv.exit ], [ %29, %31 ], [ 0, %45 ]
  %.023 = phi i64 [ 4, %_ZN2cv8FileNode3ptrEv.exit ], [ 4, %31 ], [ %49, %45 ]
  %51 = getelementptr inbounds nuw i8, ptr %0, i64 560
  %52 = load i64, ptr %51, align 8, !tbaa !122
  %53 = sub i64 %.023, %.024
  %54 = add i64 %53, %52
  %55 = trunc i64 %54 to i32
  store i32 %55, ptr %spec.select, align 1
  br label %_ZNK2cv8FileNode5isMapEv.exit.thread

_ZNK2cv8FileNode5isMapEv.exit.thread:             ; preds = %2, %_ZNK2cv8FileNode5isSeqEv.exit.thread, %_ZNK2cv8FileNode3ptrEv.exit.i.i28, %_ZNK2cv8FileNode5isMapEv.exit, %.loopexit
  ret void
}